target datalayout = "e-m:e-p270:32:32-p271:32:32-p272:64:64-i64:64-i128:128-f80:128-n8:16:32:64-S128"
target triple = "x86_64-unknown-linux-gnu"

%"class.std::__cxx11::basic_string" = type { %"struct.std::__cxx11::basic_string<char>::_Alloc_hider", i64, %union.anon }
%"struct.std::__cxx11::basic_string<char>::_Alloc_hider" = type { ptr }
%union.anon = type { i64, [8 x i8] }
%"class.folly::Range" = type { ptr, ptr }
%"struct.folly::dynamic" = type { i32, %"union.folly::dynamic::Data" }
%"union.folly::dynamic::Data" = type { %"class.std::__cxx11::basic_string" }

@.str.28 = private unnamed_addr constant [12 x i8] c"nullAllowed\00", align 1
@.str.75 = private unnamed_addr constant [23 x i8] c"int/double/bool/string\00", align 1

; Function Attrs: mustprogress nounwind uwtable
define linkonce_odr noundef ptr @_ZN5folly7dynamic11GetAddrImplINSt7__cxx1112basic_stringIcSt11char_traitsIcESaIcEEEE3getERNS0_4DataE(ptr noundef nonnull align 8 dereferenceable(32) %d) #3 comdat align 2 {
entry:
  %d.addr = alloca ptr, align 8
  store ptr %d, ptr %d.addr, align 8
  %0 = load ptr, ptr %d.addr, align 8
  ret ptr %0
}

; Function Attrs: mustprogress nounwind uwtable
define linkonce_odr noundef ptr @_ZN5folly7dynamic11GetAddrImplIbE3getERNS0_4DataE(ptr noundef nonnull align 8 dereferenceable(32) %d) #3 comdat align 2 {
entry:
  %d.addr = alloca ptr, align 8
  store ptr %d, ptr %d.addr, align 8
  %0 = load ptr, ptr %d.addr, align 8
  ret ptr %0
}

; Function Attrs: mustprogress nounwind uwtable
define linkonce_odr noundef ptr @_ZN5folly7dynamic11GetAddrImplIdE3getERNS0_4DataE(ptr noundef nonnull align 8 dereferenceable(32) %d) #3 comdat align 2 {
entry:
  %d.addr = alloca ptr, align 8
  store ptr %d, ptr %d.addr, align 8
  %0 = load ptr, ptr %d.addr, align 8
  ret ptr %0
}

; Function Attrs: mustprogress nounwind uwtable
define linkonce_odr noundef ptr @_ZN5folly7dynamic11GetAddrImplIlE3getERNS0_4DataE(ptr noundef nonnull align 8 dereferenceable(32) %d) #3 comdat align 2 {
entry:
  %d.addr = alloca ptr, align 8
  store ptr %d, ptr %d.addr, align 8
  %0 = load ptr, ptr %d.addr, align 8
  ret ptr %0
}

; Function Attrs: mustprogress nounwind uwtable
define linkonce_odr noundef ptr @_ZN5folly7dynamic10getAddressINSt7__cxx1112basic_stringIcSt11char_traitsIcESaIcEEEEEPT_v(ptr noundef nonnull align 8 dereferenceable(40) %this) #3 comdat align 2 {
entry:
  %this.addr = alloca ptr, align 8
  store ptr %this, ptr %this.addr, align 8
  %this1 = load ptr, ptr %this.addr, align 8
  %u_ = getelementptr inbounds %"struct.folly::dynamic", ptr %this1, i32 0, i32 1
  %call = call noundef ptr @_ZN5folly7dynamic11GetAddrImplINSt7__cxx1112basic_stringIcSt11char_traitsIcESaIcEEEE3getERNS0_4DataE(ptr noundef nonnull align 8 dereferenceable(32) %u_) #13
  ret ptr %call
}

; Function Attrs: mustprogress nounwind uwtable
define linkonce_odr noundef ptr @_ZN5folly7dynamic10getAddressIbEEPT_v(ptr noundef nonnull align 8 dereferenceable(40) %this) #3 comdat align 2 {
entry:
  %this.addr = alloca ptr, align 8
  store ptr %this, ptr %this.addr, align 8
  %this1 = load ptr, ptr %this.addr, align 8
  %u_ = getelementptr inbounds %"struct.folly::dynamic", ptr %this1, i32 0, i32 1
  %call = call noundef ptr @_ZN5folly7dynamic11GetAddrImplIbE3getERNS0_4DataE(ptr noundef nonnull align 8 dereferenceable(32) %u_) #13
  ret ptr %call
}

; Function Attrs: mustprogress nounwind uwtable
define linkonce_odr noundef ptr @_ZN5folly7dynamic10getAddressIdEEPT_v(ptr noundef nonnull align 8 dereferenceable(40) %this) #3 comdat align 2 {
entry:
  %this.addr = alloca ptr, align 8
  store ptr %this, ptr %this.addr, align 8
  %this1 = load ptr, ptr %this.addr, align 8
  %u_ = getelementptr inbounds %"struct.folly::dynamic", ptr %this1, i32 0, i32 1
  %call = call noundef ptr @_ZN5folly7dynamic11GetAddrImplIdE3getERNS0_4DataE(ptr noundef nonnull align 8 dereferenceable(32) %u_) #13
  ret ptr %call
}

; Function Attrs: mustprogress nounwind uwtable
define linkonce_odr noundef ptr @_ZN5folly7dynamic10getAddressIlEEPT_v(ptr noundef nonnull align 8 dereferenceable(40) %this) #3 comdat align 2 {
entry:
  %this.addr = alloca ptr, align 8
  store ptr %this, ptr %this.addr, align 8
  %this1 = load ptr, ptr %this.addr, align 8
  %u_ = getelementptr inbounds %"struct.folly::dynamic", ptr %this1, i32 0, i32 1
  %call = call noundef ptr @_ZN5folly7dynamic11GetAddrImplIlE3getERNS0_4DataE(ptr noundef nonnull align 8 dereferenceable(32) %u_) #13
  ret ptr %call
}

; Function Attrs: mustprogress nounwind uwtable
define linkonce_odr void @_ZN5folly5RangeIPKcEC2ES2_m(ptr noundef nonnull align 8 dereferenceable(16) %this, ptr noundef %start, i64 noundef %size) unnamed_addr #3 comdat align 2 {
entry:
  %this.addr = alloca ptr, align 8
  %start.addr = alloca ptr, align 8
  %size.addr = alloca i64, align 8
  store ptr %this, ptr %this.addr, align 8
  store ptr %start, ptr %start.addr, align 8
  store i64 %size, ptr %size.addr, align 8
  %this1 = load ptr, ptr %this.addr, align 8
  %b_ = getelementptr inbounds %"class.folly::Range", ptr %this1, i32 0, i32 0
  %0 = load ptr, ptr %start.addr, align 8
  store ptr %0, ptr %b_, align 8
  %e_ = getelementptr inbounds %"class.folly::Range", ptr %this1, i32 0, i32 1
  %1 = load ptr, ptr %start.addr, align 8
  %2 = load i64, ptr %size.addr, align 8
  %add.ptr = getelementptr inbounds i8, ptr %1, i64 %2
  store ptr %add.ptr, ptr %e_, align 8
  ret void
}

; Function Attrs: mustprogress nounwind uwtable
define linkonce_odr noundef ptr @_ZNR5folly7dynamic11get_nothrowINSt7__cxx1112basic_stringIcSt11char_traitsIcESaIcEEEEEPT_v(ptr noundef nonnull align 8 dereferenceable(40) %this) #3 comdat align 2 {
entry:
  %retval = alloca ptr, align 8
  %this.addr = alloca ptr, align 8
  store ptr %this, ptr %this.addr, align 8
  %this1 = load ptr, ptr %this.addr, align 8
  %type_ = getelementptr inbounds %"struct.folly::dynamic", ptr %this1, i32 0, i32 0
  %0 = load i32, ptr %type_, align 8
  %cmp = icmp ne i32 %0, 6
  br i1 %cmp, label %if.then, label %if.end

if.then:                                          ; preds = %entry
  store ptr null, ptr %retval, align 8
  br label %return

if.end:                                           ; preds = %entry
  %call = call noundef ptr @_ZN5folly7dynamic10getAddressINSt7__cxx1112basic_stringIcSt11char_traitsIcESaIcEEEEEPT_v(ptr noundef nonnull align 8 dereferenceable(40) %this1) #13
  store ptr %call, ptr %retval, align 8
  br label %return

return:                                           ; preds = %if.end, %if.then
  %1 = load ptr, ptr %retval, align 8
  ret ptr %1
}

; Function Attrs: mustprogress nounwind uwtable
define linkonce_odr noundef ptr @_ZNR5folly7dynamic11get_nothrowIbEEPT_v(ptr noundef nonnull align 8 dereferenceable(40) %this) #3 comdat align 2 {
entry:
  %retval = alloca ptr, align 8
  %this.addr = alloca ptr, align 8
  store ptr %this, ptr %this.addr, align 8
  %this1 = load ptr, ptr %this.addr, align 8
  %type_ = getelementptr inbounds %"struct.folly::dynamic", ptr %this1, i32 0, i32 0
  %0 = load i32, ptr %type_, align 8
  %cmp = icmp ne i32 %0, 2
  br i1 %cmp, label %if.then, label %if.end

if.then:                                          ; preds = %entry
  store ptr null, ptr %retval, align 8
  br label %return

if.end:                                           ; preds = %entry
  %call = call noundef ptr @_ZN5folly7dynamic10getAddressIbEEPT_v(ptr noundef nonnull align 8 dereferenceable(40) %this1) #13
  store ptr %call, ptr %retval, align 8
  br label %return

return:                                           ; preds = %if.end, %if.then
  %1 = load ptr, ptr %retval, align 8
  ret ptr %1
}

; Function Attrs: mustprogress nounwind uwtable
define linkonce_odr noundef ptr @_ZNR5folly7dynamic11get_nothrowIdEEPT_v(ptr noundef nonnull align 8 dereferenceable(40) %this) #3 comdat align 2 {
entry:
  %retval = alloca ptr, align 8
  %this.addr = alloca ptr, align 8
  store ptr %this, ptr %this.addr, align 8
  %this1 = load ptr, ptr %this.addr, align 8
  %type_ = getelementptr inbounds %"struct.folly::dynamic", ptr %this1, i32 0, i32 0
  %0 = load i32, ptr %type_, align 8
  %cmp = icmp ne i32 %0, 3
  br i1 %cmp, label %if.then, label %if.end

if.then:                                          ; preds = %entry
  store ptr null, ptr %retval, align 8
  br label %return

if.end:                                           ; preds = %entry
  %call = call noundef ptr @_ZN5folly7dynamic10getAddressIdEEPT_v(ptr noundef nonnull align 8 dereferenceable(40) %this1) #13
  store ptr %call, ptr %retval, align 8
  br label %return

return:                                           ; preds = %if.end, %if.then
  %1 = load ptr, ptr %retval, align 8
  ret ptr %1
}

; Function Attrs: mustprogress nounwind uwtable
define linkonce_odr noundef ptr @_ZNR5folly7dynamic11get_nothrowIlEEPT_v(ptr noundef nonnull align 8 dereferenceable(40) %this) #3 comdat align 2 {
entry:
  %retval = alloca ptr, align 8
  %this.addr = alloca ptr, align 8
  store ptr %this, ptr %this.addr, align 8
  %this1 = load ptr, ptr %this.addr, align 8
  %type_ = getelementptr inbounds %"struct.folly::dynamic", ptr %this1, i32 0, i32 0
  %0 = load i32, ptr %type_, align 8
  %cmp = icmp ne i32 %0, 4
  br i1 %cmp, label %if.then, label %if.end

if.then:                                          ; preds = %entry
  store ptr null, ptr %retval, align 8
  br label %return

if.end:                                           ; preds = %entry
  %call = call noundef ptr @_ZN5folly7dynamic10getAddressIlEEPT_v(ptr noundef nonnull align 8 dereferenceable(40) %this1) #13
  store ptr %call, ptr %retval, align 8
  br label %return

return:                                           ; preds = %if.end, %if.then
  %1 = load ptr, ptr %retval, align 8
  ret ptr %1
}

; Function Attrs: mustprogress uwtable
define linkonce_odr noundef zeroext i1 @_ZN5folly2toIbNSt7__cxx1112basic_stringIcSt11char_traitsIcESaIcEEEEENSt9enable_ifIXaasr12IsSomeStringIT0_EE5valuentsr3std7is_sameINS_5RangeIPKcEET_EE5valueESD_E4typeERKS8_(ptr noundef nonnull align 8 dereferenceable(32) %src) #0 comdat {
entry:
  %src.addr = alloca ptr, align 8
  %agg.tmp = alloca %"class.folly::Range", align 8
  store ptr %src, ptr %src.addr, align 8
  %0 = load ptr, ptr %src.addr, align 8
  %call = call noundef ptr @_ZNKSt7__cxx1112basic_stringIcSt11char_traitsIcESaIcEE4dataEv(ptr noundef nonnull align 8 dereferenceable(32) %0) #13
  %1 = load ptr, ptr %src.addr, align 8
  %call1 = call noundef i64 @_ZNKSt7__cxx1112basic_stringIcSt11char_traitsIcESaIcEE4sizeEv(ptr noundef nonnull align 8 dereferenceable(32) %1) #13
  call void @_ZN5folly5RangeIPKcEC2ES2_m(ptr noundef nonnull align 8 dereferenceable(16) %agg.tmp, ptr noundef %call, i64 noundef %call1)
  %2 = getelementptr inbounds { ptr, ptr }, ptr %agg.tmp, i32 0, i32 0
  %3 = load ptr, ptr %2, align 8
  %4 = getelementptr inbounds { ptr, ptr }, ptr %agg.tmp, i32 0, i32 1
  %5 = load ptr, ptr %4, align 8
  %call2 = call noundef zeroext i1 @_ZN5folly2toIbEENSt9enable_ifIXntsr3std7is_sameINS_5RangeIPKcEET_EE5valueES6_E4typeES5_(ptr %3, ptr %5)
  ret i1 %call2
}

; Function Attrs: mustprogress nounwind uwtable
define linkonce_odr noundef ptr @_ZNKR5folly7dynamic11get_nothrowINSt7__cxx1112basic_stringIcSt11char_traitsIcESaIcEEEEEPKT_v(ptr noundef nonnull align 8 dereferenceable(40) %this) #3 comdat align 2 {
entry:
  %this.addr = alloca ptr, align 8
  store ptr %this, ptr %this.addr, align 8
  %this1 = load ptr, ptr %this.addr, align 8
  %call = call noundef ptr @_ZNR5folly7dynamic11get_nothrowINSt7__cxx1112basic_stringIcSt11char_traitsIcESaIcEEEEEPT_v(ptr noundef nonnull align 8 dereferenceable(40) %this1) #13
  ret ptr %call
}

; Function Attrs: mustprogress nounwind uwtable
define linkonce_odr noundef zeroext i1 @_ZN5folly2toIbRKbEENSt9enable_ifIXsr3std7is_sameIT_NSt5decayIT0_E4typeEEE5valueES4_E4typeEOS6_(ptr noundef nonnull align 1 dereferenceable(1) %value) #3 comdat {
entry:
  %value.addr = alloca ptr, align 8
  store ptr %value, ptr %value.addr, align 8
  %0 = load ptr, ptr %value.addr, align 8
  %1 = load i8, ptr %0, align 1
  %tobool = trunc i8 %1 to i1
  ret i1 %tobool
}

; Function Attrs: mustprogress nounwind uwtable
define linkonce_odr noundef ptr @_ZNKR5folly7dynamic11get_nothrowIbEEPKT_v(ptr noundef nonnull align 8 dereferenceable(40) %this) #3 comdat align 2 {
entry:
  %this.addr = alloca ptr, align 8
  store ptr %this, ptr %this.addr, align 8
  %this1 = load ptr, ptr %this.addr, align 8
  %call = call noundef ptr @_ZNR5folly7dynamic11get_nothrowIbEEPT_v(ptr noundef nonnull align 8 dereferenceable(40) %this1) #13
  ret ptr %call
}

; Function Attrs: mustprogress nounwind uwtable
define linkonce_odr noundef zeroext i1 @_ZN5folly2toIbdEENSt9enable_ifIXaaaa15is_arithmetic_vIT0_Entsr3std7is_sameIT_S2_EE5valuesr3std7is_sameIS3_bEE5valueES3_E4typeERKS2_(ptr noundef nonnull align 8 dereferenceable(8) %value) #3 comdat {
entry:
  %value.addr = alloca ptr, align 8
  store ptr %value, ptr %value.addr, align 8
  %0 = load ptr, ptr %value.addr, align 8
  %1 = load double, ptr %0, align 8
  %cmp = fcmp une double %1, 0.000000e+00
  ret i1 %cmp
}

; Function Attrs: mustprogress nounwind uwtable
define linkonce_odr noundef ptr @_ZNKR5folly7dynamic11get_nothrowIdEEPKT_v(ptr noundef nonnull align 8 dereferenceable(40) %this) #3 comdat align 2 {
entry:
  %this.addr = alloca ptr, align 8
  store ptr %this, ptr %this.addr, align 8
  %this1 = load ptr, ptr %this.addr, align 8
  %call = call noundef ptr @_ZNR5folly7dynamic11get_nothrowIdEEPT_v(ptr noundef nonnull align 8 dereferenceable(40) %this1) #13
  ret ptr %call
}

; Function Attrs: mustprogress nounwind uwtable
define linkonce_odr noundef zeroext i1 @_ZN5folly2toIblEENSt9enable_ifIXaaaa15is_arithmetic_vIT0_Entsr3std7is_sameIT_S2_EE5valuesr3std7is_sameIS3_bEE5valueES3_E4typeERKS2_(ptr noundef nonnull align 8 dereferenceable(8) %value) #3 comdat {
entry:
  %value.addr = alloca ptr, align 8
  store ptr %value, ptr %value.addr, align 8
  %0 = load ptr, ptr %value.addr, align 8
  %1 = load i64, ptr %0, align 8
  %cmp = icmp ne i64 %1, 0
  ret i1 %cmp
}

; Function Attrs: mustprogress nounwind uwtable
define linkonce_odr noundef ptr @_ZNKR5folly7dynamic11get_nothrowIlEEPKT_v(ptr noundef nonnull align 8 dereferenceable(40) %this) #3 comdat align 2 {
entry:
  %this.addr = alloca ptr, align 8
  store ptr %this, ptr %this.addr, align 8
  %this1 = load ptr, ptr %this.addr, align 8
  %call = call noundef ptr @_ZNR5folly7dynamic11get_nothrowIlEEPT_v(ptr noundef nonnull align 8 dereferenceable(40) %this1) #13
  ret ptr %call
}

; Function Attrs: mustprogress nounwind uwtable
define linkonce_odr noundef i32 @_ZNK5folly7dynamic4typeEv(ptr noundef nonnull align 8 dereferenceable(40) %this) #3 comdat align 2 {
entry:
  %this.addr = alloca ptr, align 8
  store ptr %this, ptr %this.addr, align 8
  %this1 = load ptr, ptr %this.addr, align 8
  %type_ = getelementptr inbounds %"struct.folly::dynamic", ptr %this1, i32 0, i32 0
  %0 = load i32, ptr %type_, align 8
  ret i32 %0
}

; Function Attrs: mustprogress nounwind uwtable
define linkonce_odr noundef i64 @_ZN5folly6detail25constexpr_strlen_internalIcLm0EEEmPKT_i(ptr noundef %s, i32 noundef %0) #3 comdat {
entry:
  %s.addr = alloca ptr, align 8
  %.addr = alloca i32, align 4
  store ptr %s, ptr %s.addr, align 8
  store i32 %0, ptr %.addr, align 4
  %1 = load ptr, ptr %s.addr, align 8
  %call = call i64 @strlen(ptr noundef %1) #13
  ret i64 %call
}

; Function Attrs: mustprogress uwtable
define linkonce_odr noundef zeroext i1 @_ZNK5folly7dynamic6asImplIbEET_v(ptr noundef nonnull align 8 dereferenceable(40) %this) #0 comdat align 2 {
entry:
  %args.addr.i = alloca ptr, align 8
  %args.addr2.i = alloca ptr, align 8
  %retval = alloca i1, align 1
  %this.addr = alloca ptr, align 8
  %ref.tmp = alloca i32, align 4
  store ptr %this, ptr %this.addr, align 8
  %this1 = load ptr, ptr %this.addr, align 8
  %call = call noundef i32 @_ZNK5folly7dynamic4typeEv(ptr noundef nonnull align 8 dereferenceable(40) %this1)
  switch i32 %call, label %sw.default [
    i32 4, label %sw.bb
    i32 3, label %sw.bb4
    i32 2, label %sw.bb7
    i32 6, label %sw.bb10
    i32 0, label %sw.bb13
    i32 1, label %sw.bb13
    i32 5, label %sw.bb13
  ]

sw.bb:                                            ; preds = %entry
  %call2 = call noundef ptr @_ZNKR5folly7dynamic11get_nothrowIlEEPKT_v(ptr noundef nonnull align 8 dereferenceable(40) %this1) #13
  %call3 = call noundef zeroext i1 @_ZN5folly2toIblEENSt9enable_ifIXaaaa15is_arithmetic_vIT0_Entsr3std7is_sameIT_S2_EE5valuesr3std7is_sameIS3_bEE5valueES3_E4typeERKS2_(ptr noundef nonnull align 8 dereferenceable(8) %call2)
  store i1 %call3, ptr %retval, align 1
  br label %return

sw.bb4:                                           ; preds = %entry
  %call5 = call noundef ptr @_ZNKR5folly7dynamic11get_nothrowIdEEPKT_v(ptr noundef nonnull align 8 dereferenceable(40) %this1) #13
  %call6 = call noundef zeroext i1 @_ZN5folly2toIbdEENSt9enable_ifIXaaaa15is_arithmetic_vIT0_Entsr3std7is_sameIT_S2_EE5valuesr3std7is_sameIS3_bEE5valueES3_E4typeERKS2_(ptr noundef nonnull align 8 dereferenceable(8) %call5)
  store i1 %call6, ptr %retval, align 1
  br label %return

sw.bb7:                                           ; preds = %entry
  %call8 = call noundef ptr @_ZNKR5folly7dynamic11get_nothrowIbEEPKT_v(ptr noundef nonnull align 8 dereferenceable(40) %this1) #13
  %call9 = call noundef zeroext i1 @_ZN5folly2toIbRKbEENSt9enable_ifIXsr3std7is_sameIT_NSt5decayIT0_E4typeEEE5valueES4_E4typeEOS6_(ptr noundef nonnull align 1 dereferenceable(1) %call8)
  store i1 %call9, ptr %retval, align 1
  br label %return

sw.bb10:                                          ; preds = %entry
  %call11 = call noundef ptr @_ZNKR5folly7dynamic11get_nothrowINSt7__cxx1112basic_stringIcSt11char_traitsIcESaIcEEEEEPKT_v(ptr noundef nonnull align 8 dereferenceable(40) %this1) #13
  %call12 = call noundef zeroext i1 @_ZN5folly2toIbNSt7__cxx1112basic_stringIcSt11char_traitsIcESaIcEEEEENSt9enable_ifIXaasr12IsSomeStringIT0_EE5valuentsr3std7is_sameINS_5RangeIPKcEET_EE5valueESD_E4typeERKS8_(ptr noundef nonnull align 8 dereferenceable(32) %call11)
  store i1 %call12, ptr %retval, align 1
  br label %return

sw.bb13:                                          ; preds = %entry, %entry, %entry
  br label %sw.default

sw.default:                                       ; preds = %sw.bb13, %entry
  %call14 = call noundef i32 @_ZNK5folly7dynamic4typeEv(ptr noundef nonnull align 8 dereferenceable(40) %this1)
  store i32 %call14, ptr %ref.tmp, align 4
  store ptr @.str.75, ptr %args.addr.i, align 8
  store ptr %ref.tmp, ptr %args.addr2.i, align 8
  %0 = load ptr, ptr %args.addr.i, align 8
  %1 = load ptr, ptr %args.addr2.i, align 8
  %2 = load i32, ptr %1, align 4
  call void @_ZN5folly6detail16throw_exception_INS_9TypeErrorEJPKcNS_7dynamic4TypeEEEEvDpT0_(ptr noundef %0, i32 noundef %2) #36
  unreachable

_ZN5folly15throw_exceptionINS_9TypeErrorEJRA23_KcNS_7dynamic4TypeEEEEvDpOT0_.exit: ; No predecessors!
  unreachable

return:                                           ; preds = %sw.bb10, %sw.bb7, %sw.bb4, %sw.bb
  %3 = load i1, ptr %retval, align 1
  ret i1 %3
}

; Function Attrs: mustprogress nounwind uwtable
define linkonce_odr noundef i64 @_ZN5folly16constexpr_strlenIcEEmPKT_(ptr noundef %s) #3 comdat {
entry:
  %s.addr = alloca ptr, align 8
  store ptr %s, ptr %s.addr, align 8
  %0 = load ptr, ptr %s.addr, align 8
  %call = call noundef i64 @_ZN5folly6detail25constexpr_strlen_internalIcLm0EEEmPKT_i(ptr noundef %0, i32 noundef 0) #13
  ret i64 %call
}

; Function Attrs: mustprogress uwtable
define linkonce_odr noundef zeroext i1 @_ZNK5folly7dynamic6asBoolEv(ptr noundef nonnull align 8 dereferenceable(40) %this) #0 comdat align 2 {
entry:
  %this.addr = alloca ptr, align 8
  store ptr %this, ptr %this.addr, align 8
  %this1 = load ptr, ptr %this.addr, align 8
  %call = call noundef zeroext i1 @_ZNK5folly7dynamic6asImplIbEET_v(ptr noundef nonnull align 8 dereferenceable(40) %this1)
  ret i1 %call
}

; Function Attrs: mustprogress uwtable
define linkonce_odr noundef nonnull align 8 dereferenceable(40) ptr @_ZNKR5folly7dynamicixENS_5RangeIPKcEE(ptr noundef nonnull align 8 dereferenceable(40) %this, ptr %k.coerce0, ptr %k.coerce1) #0 comdat align 2 {
entry:
  %k = alloca %"class.folly::Range", align 8
  %this.addr = alloca ptr, align 8
  %agg.tmp = alloca %"class.folly::Range", align 8
  %0 = getelementptr inbounds { ptr, ptr }, ptr %k, i32 0, i32 0
  store ptr %k.coerce0, ptr %0, align 8
  %1 = getelementptr inbounds { ptr, ptr }, ptr %k, i32 0, i32 1
  store ptr %k.coerce1, ptr %1, align 8
  store ptr %this, ptr %this.addr, align 8
  %this1 = load ptr, ptr %this.addr, align 8
  call void @llvm.memcpy.p0.p0.i64(ptr align 8 %agg.tmp, ptr align 8 %k, i64 16, i1 false)
  %2 = getelementptr inbounds { ptr, ptr }, ptr %agg.tmp, i32 0, i32 0
  %3 = load ptr, ptr %2, align 8
  %4 = getelementptr inbounds { ptr, ptr }, ptr %agg.tmp, i32 0, i32 1
  %5 = load ptr, ptr %4, align 8
  %call = call noundef nonnull align 8 dereferenceable(40) ptr @_ZNKR5folly7dynamic2atENS_5RangeIPKcEE(ptr noundef nonnull align 8 dereferenceable(40) %this1, ptr %3, ptr %5)
  ret ptr %call
}

; Function Attrs: mustprogress nounwind uwtable
define linkonce_odr void @_ZN5folly5RangeIPKcEC2ES2_(ptr noundef nonnull align 8 dereferenceable(16) %this, ptr noundef %str) unnamed_addr #3 comdat align 2 {
entry:
  %this.addr = alloca ptr, align 8
  %str.addr = alloca ptr, align 8
  store ptr %this, ptr %this.addr, align 8
  store ptr %str, ptr %str.addr, align 8
  %this1 = load ptr, ptr %this.addr, align 8
  %b_ = getelementptr inbounds %"class.folly::Range", ptr %this1, i32 0, i32 0
  %0 = load ptr, ptr %str.addr, align 8
  store ptr %0, ptr %b_, align 8
  %e_ = getelementptr inbounds %"class.folly::Range", ptr %this1, i32 0, i32 1
  %1 = load ptr, ptr %str.addr, align 8
  %2 = load ptr, ptr %str.addr, align 8
  %call = call noundef i64 @_ZN5folly16constexpr_strlenIcEEmPKT_(ptr noundef %2) #13
  %add.ptr = getelementptr inbounds i8, ptr %1, i64 %call
  store ptr %add.ptr, ptr %e_, align 8
  ret void
}

; Function Attrs: mustprogress uwtable
define internal noundef zeroext i1 @_ZN8facebook5velox6common12_GLOBAL__N_122deserializeNullAllowedERKN5folly7dynamicE(ptr noundef nonnull align 8 dereferenceable(40) %obj) #0 {
entry:
  %obj.addr = alloca ptr, align 8
  %agg.tmp = alloca %"class.folly::Range", align 8
  store ptr %obj, ptr %obj.addr, align 8
  %0 = load ptr, ptr %obj.addr, align 8
  call void @_ZN5folly5RangeIPKcEC2ES2_(ptr noundef nonnull align 8 dereferenceable(16) %agg.tmp, ptr noundef @.str.28)
  %1 = getelementptr inbounds { ptr, ptr }, ptr %agg.tmp, i32 0, i32 0
  %2 = load ptr, ptr %1, align 8
  %3 = getelementptr inbounds { ptr, ptr }, ptr %agg.tmp, i32 0, i32 1
  %4 = load ptr, ptr %3, align 8
  %call = call noundef nonnull align 8 dereferenceable(40) ptr @_ZNKR5folly7dynamicixENS_5RangeIPKcEE(ptr noundef nonnull align 8 dereferenceable(40) %0, ptr %2, ptr %4)
  %call1 = call noundef zeroext i1 @_ZNK5folly7dynamic6asBoolEv(ptr noundef nonnull align 8 dereferenceable(40) %call)
  ret i1 %call1
}