; Function Attrs: mustprogress uwtable
define internal fastcc noundef zeroext i1 @_ZN8facebook5velox6common12_GLOBAL__N_122deserializeNullAllowedERKN5folly7dynamicE(ptr noundef nonnull align 8 dereferenceable(40) %obj) unnamed_addr #0 {
entry:
  %call.i = tail call noundef nonnull align 8 dereferenceable(40) ptr @_ZNKR5folly7dynamic2atENS_5RangeIPKcEE(ptr noundef nonnull align 8 dereferenceable(40) %obj, ptr nonnull @.str.28, ptr nonnull getelementptr inbounds ([12 x i8], ptr @.str.28, i64 0, i64 11))
  %0 = load i32, ptr %call.i, align 8
  switch i32 %0, label %sw.default.i.i [
    i32 4, label %sw.bb.i.i
    i32 3, label %sw.bb4.i.i
    i32 2, label %sw.bb7.i.i
    i32 6, label %sw.bb10.i.i
  ]

sw.bb.i.i:                                        ; preds = %entry
  %u_.i.i.i.i.i = getelementptr inbounds i8, ptr %call.i, i64 8
  %1 = load i64, ptr %u_.i.i.i.i.i, align 8
  %cmp.i.i.i = icmp ne i64 %1, 0
  br label %_ZNK5folly7dynamic6asBoolEv.exit

sw.bb4.i.i:                                       ; preds = %entry
  %u_.i.i.i2.i.i = getelementptr inbounds i8, ptr %call.i, i64 8
  %2 = load double, ptr %u_.i.i.i2.i.i, align 8
  %cmp.i4.i.i = fcmp une double %2, 0.000000e+00
  br label %_ZNK5folly7dynamic6asBoolEv.exit

sw.bb7.i.i:                                       ; preds = %entry
  %u_.i.i.i6.i.i = getelementptr inbounds i8, ptr %call.i, i64 8
  %3 = load i8, ptr %u_.i.i.i6.i.i, align 8
  %4 = and i8 %3, 1
  %tobool.i.i.i = icmp ne i8 %4, 0
  br label %_ZNK5folly7dynamic6asBoolEv.exit

sw.bb10.i.i:                                      ; preds = %entry
  %u_.i.i.i9.i.i = getelementptr inbounds i8, ptr %call.i, i64 8
  %call.i.i.i1 = tail call noundef ptr @_ZNKSt7__cxx1112basic_stringIcSt11char_traitsIcESaIcEE4dataEv(ptr noundef nonnull align 8 dereferenceable(32) %u_.i.i.i9.i.i) #34
  %call1.i.i.i = tail call noundef i64 @_ZNKSt7__cxx1112basic_stringIcSt11char_traitsIcESaIcEE4sizeEv(ptr noundef nonnull align 8 dereferenceable(32) %u_.i.i.i9.i.i) #34
  %add.ptr.i.i.i.i = getelementptr inbounds i8, ptr %call.i.i.i1, i64 %call1.i.i.i
  %call2.i.i.i = tail call noundef zeroext i1 @_ZN5folly2toIbEENSt9enable_ifIXntsr3std7is_sameINS_5RangeIPKcEET_EE5valueES6_E4typeES5_(ptr %call.i.i.i1, ptr %add.ptr.i.i.i.i)
  br label %_ZNK5folly7dynamic6asBoolEv.exit

sw.default.i.i:                                   ; preds = %entry
  tail call void @_ZN5folly6detail16throw_exception_INS_9TypeErrorEJPKcNS_7dynamic4TypeEEEEvDpT0_(ptr noundef nonnull @.str.75, i32 noundef %0) #38
  unreachable

_ZNK5folly7dynamic6asBoolEv.exit:                 ; preds = %sw.bb.i.i, %sw.bb4.i.i, %sw.bb7.i.i, %sw.bb10.i.i
  %retval.0.i.i = phi i1 [ %call2.i.i.i, %sw.bb10.i.i ], [ %tobool.i.i.i, %sw.bb7.i.i ], [ %cmp.i4.i.i, %sw.bb4.i.i ], [ %cmp.i.i.i, %sw.bb.i.i ]
  ret i1 %retval.0.i.i
}